
/Users/yee.wang/.qoder/bin/qodercli/qodercli-0.1.38:	file format mach-o arm64

Disassembly of section __TEXT,__text:

000000010007ff90 <__cgo_topofstack>:
100380f70: f9400b90    	ldr	x16, [x28, #0x10]
100380f74: d102c3f1    	sub	x17, sp, #0xb0
100380f78: eb10023f    	cmp	x17, x16
100380f7c: 54000ce9    	b.ls	0x100381118 <__cgo_topofstack+0x301188>
100380f80: d104c3f4    	sub	x20, sp, #0x130
100380f84: a93ffa9d    	stp	x29, x30, [x20, #-0x8]
100380f88: 9100029f    	mov	sp, x20
100380f8c: d10023fd    	sub	x29, sp, #0x8
100380f90: f9009fe0    	str	x0, [sp, #0x138]
100380f94: b0007943    	adrp	x3, 0x1012a9000 <dyld_stub_binder+0x1012a9000>
100380f98: 910f8063    	add	x3, x3, #0x3e0
100380f9c: b24003e4    	orr	x4, xzr, #0x1
100380fa0: 97f68478    	bl	0x100122180 <__cgo_topofstack+0xa21f0>
100380fa4: d503201f    	nop
100380fa8: 910303f4    	add	x20, sp, #0xc0
100380fac: 1000009b    	adr	x27, 0x100380fbc <__cgo_topofstack+0x30102c>
100380fb0: a93eeffd    	stp	x29, x27, [sp, #-0x18]
100380fb4: d10063fd    	sub	x29, sp, #0x18
100380fb8: 97f3fd48    	bl	0x1000804d8 <__cgo_topofstack+0x548>
100380fbc: d10023fd    	sub	x29, sp, #0x8
100380fc0: d503201f    	nop
100380fc4: d2846025    	mov	x5, #0x2301             ; =8961
100380fc8: f2ace8a5    	movk	x5, #0x6745, lsl #16
100380fcc: f2d57125    	movk	x5, #0xab89, lsl #32
100380fd0: f2fdf9a5    	movk	x5, #0xefcd, lsl #48
100380fd4: f90063e5    	str	x5, [sp, #0xc0]
100380fd8: d29b9fc5    	mov	x5, #0xdcfe             ; =56574
100380fdc: f2b31745    	movk	x5, #0x98ba, lsl #16
100380fe0: f2ca8ec5    	movk	x5, #0x5476, lsl #32
100380fe4: f2e20645    	movk	x5, #0x1032, lsl #48
100380fe8: f90067e5    	str	x5, [sp, #0xc8]
100380fec: a9117fff    	stp	xzr, xzr, [sp, #0x110]
100380ff0: aa0103e2    	mov	x2, x1
100380ff4: aa0003e1    	mov	x1, x0
100380ff8: 910103e0    	add	x0, sp, #0x40
100380ffc: 97f375a9    	bl	0x10005e6a0 <__text+0x5d3f0>
100381000: aa0203e3    	mov	x3, x2
100381004: aa0103e2    	mov	x2, x1
100381008: aa0003e1    	mov	x1, x0
10038100c: 910303e0    	add	x0, sp, #0xc0
100381010: 97fb0b28    	bl	0x100243cb0 <__cgo_topofstack+0x1c3d20>
100381014: 910183f5    	add	x21, sp, #0x60
100381018: 910303f4    	add	x20, sp, #0xc0
10038101c: 1000009b    	adr	x27, 0x10038102c <__cgo_topofstack+0x30109c>
100381020: a93eeffd    	stp	x29, x27, [sp, #-0x18]
100381024: d10063fd    	sub	x29, sp, #0x18
100381028: 97f3fdaa    	bl	0x1000806d0 <__cgo_topofstack+0x740>
10038102c: d10023fd    	sub	x29, sp, #0x8
100381030: 910183e0    	add	x0, sp, #0x60
100381034: 97fb0beb    	bl	0x100243fe0 <__cgo_topofstack+0x1c4050>
100381038: a9409be5    	ldp	x5, x6, [sp, #0x8]
10038103c: a9031be5    	stp	x5, x6, [sp, #0x30]
100381040: aa1f03e0    	mov	x0, xzr
100381044: b27c03e1    	orr	x1, xzr, #0x10
100381048: aa1f03e2    	mov	x2, xzr
10038104c: aa0103e3    	mov	x3, x1
100381050: f0008184    	adrp	x4, 0x1013b4000 <dyld_stub_binder+0x1013b4000>
100381054: 91080084    	add	x4, x4, #0x200
100381058: 97f3e5ce    	bl	0x10007a790 <__text+0x794e0>
10038105c: f90093e0    	str	x0, [sp, #0x120]
100381060: 9100c3e1    	add	x1, sp, #0x30
100381064: b27c03e2    	orr	x2, xzr, #0x10
100381068: 97f3fe16    	bl	0x1000808c0 <__cgo_topofstack+0x930>
10038106c: f0008180    	adrp	x0, 0x1013b4000 <dyld_stub_binder+0x1013b4000>
100381070: 91080000    	add	x0, x0, #0x200
100381074: b27b03e1    	orr	x1, xzr, #0x20
100381078: aa0103e2    	mov	x2, x1
10038107c: 97f3e591    	bl	0x10007a6c0 <__text+0x79410>
100381080: d503201f    	nop
100381084: f94093e5    	ldr	x5, [sp, #0x120]
100381088: aa1f03e1    	mov	x1, xzr
10038108c: aa1f03e2    	mov	x2, xzr
100381090: 14000004    	b	0x1003810a0 <__cgo_topofstack+0x301110>
100381094: 38246803    	strb	w3, [x0, x4]
100381098: 91000421    	add	x1, x1, #0x1
10038109c: 91000842    	add	x2, x2, #0x2
1003810a0: f100403f    	cmp	x1, #0x10
1003810a4: 540001ea    	b.ge	0x1003810e0 <__cgo_topofstack+0x301150>
1003810a8: 386168a3    	ldrb	w3, [x5, x1]
1003810ac: d3441c64    	ubfx	x4, x3, #4, #4
1003810b0: d00053e6    	adrp	x6, 0x100dff000 <dyld_stub_binder+0x100dff000>
1003810b4: 91087cc6    	add	x6, x6, #0x21f
1003810b8: 386468c4    	ldrb	w4, [x6, x4]
1003810bc: f100805f    	cmp	x2, #0x20
1003810c0: 54000242    	b.hs	0x100381108 <__cgo_topofstack+0x301178>
1003810c4: 38226804    	strb	w4, [x0, x2]
1003810c8: 91000444    	add	x4, x2, #0x1
1003810cc: 92400c63    	and	x3, x3, #0xf
1003810d0: 386368c3    	ldrb	w3, [x6, x3]
1003810d4: f100809f    	cmp	x4, #0x20
1003810d8: 54fffde3    	b.lo	0x100381094 <__cgo_topofstack+0x301104>
1003810dc: 14000008    	b	0x1003810fc <__cgo_topofstack+0x30116c>
1003810e0: aa0003e1    	mov	x1, x0
1003810e4: b27b03e2    	orr	x2, xzr, #0x20
1003810e8: aa1f03e0    	mov	x0, xzr
1003810ec: 97f374f9    	bl	0x10005e4d0 <__text+0x5d220>
1003810f0: a97ffbfd    	ldp	x29, x30, [sp, #-0x8]
1003810f4: 9104c3ff    	add	sp, sp, #0x130
1003810f8: d65f03c0    	ret
1003810fc: aa0403e0    	mov	x0, x4
100381100: b27b03e1    	orr	x1, xzr, #0x20
100381104: 97f3fc83    	bl	0x100080310 <__cgo_topofstack+0x380>
100381108: aa0203e0    	mov	x0, x2
10038110c: b27b03e1    	orr	x1, xzr, #0x20
100381110: 97f3fc80    	bl	0x100080310 <__cgo_topofstack+0x380>
100381114: d503201f    	nop
100381118: a90087e0    	stp	x0, x1, [sp, #0x8]
10038111c: f9000fe2    	str	x2, [sp, #0x18]
100381120: aa1e03e3    	mov	x3, x30
100381124: 97f3f2cb    	bl	0x10007dc50 <__text+0x7c9a0>
100381128: a94087e0    	ldp	x0, x1, [sp, #0x8]
10038112c: f9400fe2    	ldr	x2, [sp, #0x18]
100381130: 17ffff90    	b	0x100380f70 <__cgo_topofstack+0x300fe0>
		...
